target datalayout = "e-m:e-p270:32:32-p271:32:32-p272:64:64-i64:64-i128:128-f80:128-n8:16:32:64-S128"
target triple = "x86_64-pc-linux-gnu"

%struct.ossl_param_st = type { ptr, i32, ptr, i64, i64 }

@.str.29 = private unnamed_addr constant [27 x i8] c"../openssl/test/evp_test.c\00", align 1
@.str.356 = private unnamed_addr constant [8 x i8] c"p->data\00", align 1
@.str.357 = private unnamed_addr constant [5 x i8] c"data\00", align 1
@.str.358 = private unnamed_addr constant [31 x i8] c"Expected %s value is incorrect\00", align 1

; Function Attrs: nounwind uwtable
define internal void @ctrl2params_free(ptr noundef %0, i64 noundef %1, i64 noundef %2) #0 {
  %4 = alloca ptr, align 8
  %5 = alloca i64, align 8
  %6 = alloca i64, align 8
  store ptr %0, ptr %4, align 8, !tbaa !33
  store i64 %1, ptr %5, align 8, !tbaa !13
  store i64 %2, ptr %6, align 8, !tbaa !13
  br label %7

7:                                                ; preds = %12, %3
  %8 = load i64, ptr %5, align 8, !tbaa !13
  %9 = add i64 %8, -1
  store i64 %9, ptr %5, align 8, !tbaa !13
  %10 = load i64, ptr %6, align 8, !tbaa !13
  %11 = icmp ugt i64 %8, %10
  br i1 %11, label %12, label %18

12:                                               ; preds = %7
  %13 = load ptr, ptr %4, align 8, !tbaa !33
  %14 = load i64, ptr %5, align 8, !tbaa !13
  %15 = getelementptr inbounds nuw %struct.ossl_param_st, ptr %13, i64 %14
  %16 = getelementptr inbounds nuw %struct.ossl_param_st, ptr %15, i32 0, i32 2
  %17 = load ptr, ptr %16, align 8, !tbaa !133
  call void @CRYPTO_free(ptr noundef %17, ptr noundef @.str.29, i32 noundef 291)
  br label %7, !llvm.loop !135

18:                                               ; preds = %7
  ret void
}

; Function Attrs: inlinehint nounwind uwtable
define internal ptr @ossl_check_const_OPENSSL_STRING_sk_type(ptr noundef %0) #5 {
  %2 = alloca ptr, align 8
  store ptr %0, ptr %2, align 8, !tbaa !131
  %3 = load ptr, ptr %2, align 8, !tbaa !131
  ret ptr %3
}

; Function Attrs: nounwind uwtable
define internal i32 @check_pkey_expected_values(ptr noundef %0, ptr noundef %1, ptr noundef %2) #0 {
  %4 = alloca i32, align 4
  %5 = alloca ptr, align 8
  %6 = alloca ptr, align 8
  %7 = alloca ptr, align 8
  %8 = alloca i32, align 4
  %9 = alloca [4 x %struct.ossl_param_st], align 16
  %10 = alloca ptr, align 8
  %11 = alloca i64, align 8
  %12 = alloca i64, align 8
  %13 = alloca ptr, align 8
  %14 = alloca i32, align 4
  store ptr %0, ptr %5, align 8, !tbaa !15
  store ptr %1, ptr %6, align 8, !tbaa !41
  store ptr %2, ptr %7, align 8, !tbaa !131
  call void @llvm.lifetime.start.p0(i64 4, ptr %8) #10
  store i32 0, ptr %8, align 4, !tbaa !9
  call void @llvm.lifetime.start.p0(i64 160, ptr %9) #10
  call void @llvm.lifetime.start.p0(i64 8, ptr %10) #10
  call void @llvm.lifetime.start.p0(i64 8, ptr %11) #10
  store i64 0, ptr %11, align 8, !tbaa !13
  call void @llvm.lifetime.start.p0(i64 8, ptr %12) #10
  %15 = load ptr, ptr %7, align 8, !tbaa !131
  %16 = call ptr @ossl_check_const_OPENSSL_STRING_sk_type(ptr noundef %15)
  %17 = call i32 @OPENSSL_sk_num(ptr noundef %16)
  %18 = icmp sgt i32 %17, 0
  br i1 %18, label %19, label %93

19:                                               ; preds = %3
  %20 = load ptr, ptr %5, align 8, !tbaa !15
  %21 = load ptr, ptr %7, align 8, !tbaa !131
  %22 = load ptr, ptr %6, align 8, !tbaa !41
  %23 = call ptr @EVP_PKEY_gettable_params(ptr noundef %22)
  %24 = getelementptr inbounds [4 x %struct.ossl_param_st], ptr %9, i64 0, i64 0
  %25 = call i32 @ctrl2params(ptr noundef %20, ptr noundef %21, ptr noundef %23, ptr noundef %24, i64 noundef 4, ptr noundef %11)
  %26 = icmp ne i32 %25, 0
  br i1 %26, label %28, label %27

27:                                               ; preds = %19
  br label %94

28:                                               ; preds = %19
  %29 = getelementptr inbounds [4 x %struct.ossl_param_st], ptr %9, i64 0, i64 0
  store ptr %29, ptr %10, align 8, !tbaa !33
  br label %30

30:                                               ; preds = %89, %28
  %31 = load ptr, ptr %10, align 8, !tbaa !33
  %32 = getelementptr inbounds nuw %struct.ossl_param_st, ptr %31, i32 0, i32 0
  %33 = load ptr, ptr %32, align 8, !tbaa !251
  %34 = icmp ne ptr %33, null
  br i1 %34, label %35, label %92

35:                                               ; preds = %30
  %36 = load ptr, ptr %10, align 8, !tbaa !33
  %37 = getelementptr inbounds nuw %struct.ossl_param_st, ptr %36, i32 0, i32 1
  %38 = load i32, ptr %37, align 8, !tbaa !293
  %39 = icmp eq i32 %38, 5
  br i1 %39, label %40, label %88

40:                                               ; preds = %35
  call void @llvm.lifetime.start.p0(i64 8, ptr %13) #10
  %41 = load ptr, ptr %10, align 8, !tbaa !33
  %42 = getelementptr inbounds nuw %struct.ossl_param_st, ptr %41, i32 0, i32 3
  %43 = load i64, ptr %42, align 8, !tbaa !294
  %44 = call noalias ptr @CRYPTO_malloc(i64 noundef %43, ptr noundef @.str.29, i32 noundef 4260)
  store ptr %44, ptr %13, align 8, !tbaa !4
  %45 = load ptr, ptr %13, align 8, !tbaa !4
  %46 = icmp eq ptr %45, null
  br i1 %46, label %47, label %48

47:                                               ; preds = %40
  store i32 2, ptr %14, align 4
  br label %85

48:                                               ; preds = %40
  %49 = load ptr, ptr %6, align 8, !tbaa !41
  %50 = load ptr, ptr %10, align 8, !tbaa !33
  %51 = getelementptr inbounds nuw %struct.ossl_param_st, ptr %50, i32 0, i32 0
  %52 = load ptr, ptr %51, align 8, !tbaa !251
  %53 = load ptr, ptr %13, align 8, !tbaa !4
  %54 = load ptr, ptr %10, align 8, !tbaa !33
  %55 = getelementptr inbounds nuw %struct.ossl_param_st, ptr %54, i32 0, i32 3
  %56 = load i64, ptr %55, align 8, !tbaa !294
  %57 = call i32 @EVP_PKEY_get_octet_string_param(ptr noundef %49, ptr noundef %52, ptr noundef %53, i64 noundef %56, ptr noundef %12)
  %58 = icmp ne i32 %57, 0
  br i1 %58, label %59, label %74

59:                                               ; preds = %48
  %60 = load i64, ptr %12, align 8, !tbaa !13
  %61 = load ptr, ptr %10, align 8, !tbaa !33
  %62 = getelementptr inbounds nuw %struct.ossl_param_st, ptr %61, i32 0, i32 3
  %63 = load i64, ptr %62, align 8, !tbaa !294
  %64 = icmp eq i64 %60, %63
  br i1 %64, label %65, label %74

65:                                               ; preds = %59
  %66 = load ptr, ptr %10, align 8, !tbaa !33
  %67 = getelementptr inbounds nuw %struct.ossl_param_st, ptr %66, i32 0, i32 2
  %68 = load ptr, ptr %67, align 8, !tbaa !133
  %69 = load i64, ptr %12, align 8, !tbaa !13
  %70 = load ptr, ptr %13, align 8, !tbaa !4
  %71 = load i64, ptr %12, align 8, !tbaa !13
  %72 = call i32 @test_mem_eq(ptr noundef @.str.29, i32 noundef 4267, ptr noundef @.str.356, ptr noundef @.str.357, ptr noundef %68, i64 noundef %69, ptr noundef %70, i64 noundef %71)
  %73 = icmp eq i32 %72, 1
  br label %74

74:                                               ; preds = %65, %59, %48
  %75 = phi i1 [ false, %59 ], [ false, %48 ], [ %73, %65 ]
  %76 = zext i1 %75 to i32
  store i32 %76, ptr %8, align 4, !tbaa !9
  %77 = load ptr, ptr %13, align 8, !tbaa !4
  call void @CRYPTO_free(ptr noundef %77, ptr noundef @.str.29, i32 noundef 4268)
  %78 = load i32, ptr %8, align 4, !tbaa !9
  %79 = icmp eq i32 %78, 0
  br i1 %79, label %80, label %84

80:                                               ; preds = %74
  %81 = load ptr, ptr %10, align 8, !tbaa !33
  %82 = getelementptr inbounds nuw %struct.ossl_param_st, ptr %81, i32 0, i32 0
  %83 = load ptr, ptr %82, align 8, !tbaa !251
  call void (ptr, i32, ptr, ...) @test_error(ptr noundef @.str.29, i32 noundef 4270, ptr noundef @.str.358, ptr noundef %83)
  store i32 2, ptr %14, align 4
  br label %85

84:                                               ; preds = %74
  store i32 0, ptr %14, align 4
  br label %85

85:                                               ; preds = %80, %47, %84
  call void @llvm.lifetime.end.p0(i64 8, ptr %13) #10
  %86 = load i32, ptr %14, align 4
  switch i32 %86, label %98 [
    i32 0, label %87
    i32 2, label %94
  ]

87:                                               ; preds = %85
  br label %88

88:                                               ; preds = %87, %35
  br label %89

89:                                               ; preds = %88
  %90 = load ptr, ptr %10, align 8, !tbaa !33
  %91 = getelementptr inbounds nuw %struct.ossl_param_st, ptr %90, i32 1
  store ptr %91, ptr %10, align 8, !tbaa !33
  br label %30, !llvm.loop !295

92:                                               ; preds = %30
  br label %93

93:                                               ; preds = %92, %3
  store i32 1, ptr %8, align 4, !tbaa !9
  br label %94

94:                                               ; preds = %93, %85, %27
  %95 = getelementptr inbounds [4 x %struct.ossl_param_st], ptr %9, i64 0, i64 0
  %96 = load i64, ptr %11, align 8, !tbaa !13
  call void @ctrl2params_free(ptr noundef %95, i64 noundef %96, i64 noundef 0)
  %97 = load i32, ptr %8, align 4, !tbaa !9
  store i32 %97, ptr %4, align 4
  store i32 1, ptr %14, align 4
  br label %98

98:                                               ; preds = %94, %85
  call void @llvm.lifetime.end.p0(i64 8, ptr %12) #10
  call void @llvm.lifetime.end.p0(i64 8, ptr %11) #10
  call void @llvm.lifetime.end.p0(i64 8, ptr %10) #10
  call void @llvm.lifetime.end.p0(i64 160, ptr %9) #10
  call void @llvm.lifetime.end.p0(i64 4, ptr %8) #10
  %99 = load i32, ptr %4, align 4
  ret i32 %99
}