; Function Attrs: nounwind uwtable
define internal fastcc range(i32 0, 2) i32 @check_pkey_expected_values(ptr noundef writeonly captures(none) %0, ptr noundef %1, ptr noundef %2) unnamed_addr #1 {
  %4 = alloca [4 x %struct.ossl_param_st], align 16
  %5 = alloca i64, align 8
  %6 = alloca i64, align 8
  call void @llvm.lifetime.start.p0(i64 160, ptr nonnull %4) #10
  call void @llvm.lifetime.start.p0(i64 8, ptr nonnull %5) #10
  store i64 0, ptr %5, align 8, !tbaa !35
  call void @llvm.lifetime.start.p0(i64 8, ptr nonnull %6) #10
  %7 = tail call i32 @OPENSSL_sk_num(ptr noundef %2) #10
  %8 = icmp sgt i32 %7, 0
  br i1 %8, label %9, label %ctrl2params_free.exit

9:                                                ; preds = %3
  %10 = tail call ptr @EVP_PKEY_gettable_params(ptr noundef %1) #10
  %11 = call fastcc i32 @ctrl2params(ptr noundef %0, ptr noundef %2, ptr noundef %10, ptr noundef %4, i64 noundef 4, ptr noundef %5)
  %.not = icmp eq i32 %11, 0
  br i1 %.not, label %.thread, label %.preheader

.preheader:                                       ; preds = %9
  %12 = load ptr, ptr %4, align 16, !tbaa !203
  %.not2844 = icmp eq ptr %12, null
  br i1 %.not2844, label %.thread, label %.lr.ph

.lr.ph:                                           ; preds = %.preheader, %34
  %.02246 = phi ptr [ %35, %34 ], [ %4, %.preheader ]
  %.145 = phi i32 [ %.3, %34 ], [ 0, %.preheader ]
  %13 = getelementptr inbounds nuw i8, ptr %.02246, i64 8
  %14 = load i32, ptr %13, align 8, !tbaa !237
  %15 = icmp eq i32 %14, 5
  br i1 %15, label %16, label %34

16:                                               ; preds = %.lr.ph
  %17 = getelementptr inbounds nuw i8, ptr %.02246, i64 24
  %18 = load i64, ptr %17, align 8, !tbaa !238
  %19 = call noalias ptr @CRYPTO_malloc(i64 noundef %18, ptr noundef nonnull @.str.29, i32 noundef 4260) #10
  %20 = icmp eq ptr %19, null
  br i1 %20, label %.thread, label %21

21:                                               ; preds = %16
  %22 = load ptr, ptr %.02246, align 8, !tbaa !203
  %23 = load i64, ptr %17, align 8, !tbaa !238
  %24 = call i32 @EVP_PKEY_get_octet_string_param(ptr noundef %1, ptr noundef %22, ptr noundef nonnull %19, i64 noundef %23, ptr noundef nonnull %6) #10
  %.not29 = icmp eq i32 %24, 0
  br i1 %.not29, label %.critedge, label %25

25:                                               ; preds = %21
  %26 = load i64, ptr %6, align 8, !tbaa !35
  %27 = load i64, ptr %17, align 8, !tbaa !238
  %28 = icmp eq i64 %26, %27
  br i1 %28, label %29, label %.critedge

29:                                               ; preds = %25
  %30 = getelementptr inbounds nuw i8, ptr %.02246, i64 16
  %31 = load ptr, ptr %30, align 8, !tbaa !98
  %32 = call i32 @test_mem_eq(ptr noundef nonnull @.str.29, i32 noundef 4267, ptr noundef nonnull @.str.356, ptr noundef nonnull @.str.357, ptr noundef %31, i64 noundef %26, ptr noundef nonnull %19, i64 noundef %26) #10
  %.not37 = icmp eq i32 %32, 1
  call void @CRYPTO_free(ptr noundef nonnull %19, ptr noundef nonnull @.str.29, i32 noundef 4268) #10
  br i1 %.not37, label %34, label %.loopexit

.critedge:                                        ; preds = %21, %25
  call void @CRYPTO_free(ptr noundef nonnull %19, ptr noundef nonnull @.str.29, i32 noundef 4268) #10
  br label %.loopexit

.loopexit:                                        ; preds = %29, %.critedge
  %33 = load ptr, ptr %.02246, align 8, !tbaa !203
  call void (ptr, i32, ptr, ...) @test_error(ptr noundef nonnull @.str.29, i32 noundef 4270, ptr noundef nonnull @.str.358, ptr noundef %33) #10
  br label %.thread

34:                                               ; preds = %29, %.lr.ph
  %.3 = phi i32 [ %.145, %.lr.ph ], [ 1, %29 ]
  %35 = getelementptr inbounds nuw i8, ptr %.02246, i64 40
  %36 = load ptr, ptr %35, align 8, !tbaa !203
  %.not28 = icmp eq ptr %36, null
  br i1 %.not28, label %.thread, label %.lr.ph, !llvm.loop !239

.thread:                                          ; preds = %34, %16, %.preheader, %.loopexit, %9
  %.023.ph = phi i32 [ 0, %9 ], [ 0, %.loopexit ], [ 1, %.preheader ], [ 1, %34 ], [ %.145, %16 ]
  %.pr = load i64, ptr %5, align 8, !tbaa !35
  %.not38 = icmp eq i64 %.pr, 0
  br i1 %.not38, label %ctrl2params_free.exit, label %.lr.ph.i

.lr.ph.i:                                         ; preds = %.thread, %.lr.ph.i
  %.03.i = phi i64 [ %37, %.lr.ph.i ], [ %.pr, %.thread ]
  %37 = add i64 %.03.i, -1
  %38 = getelementptr inbounds nuw %struct.ossl_param_st, ptr %4, i64 %37, i32 2
  %39 = load ptr, ptr %38, align 8, !tbaa !98
  call void @CRYPTO_free(ptr noundef %39, ptr noundef nonnull @.str.29, i32 noundef 291) #10
  %.not39 = icmp eq i64 %37, 0
  br i1 %.not39, label %ctrl2params_free.exit, label %.lr.ph.i, !llvm.loop !100

ctrl2params_free.exit:                            ; preds = %.lr.ph.i, %3, %.thread
  %.02336 = phi i32 [ %.023.ph, %.thread ], [ 1, %3 ], [ %.023.ph, %.lr.ph.i ]
  call void @llvm.lifetime.end.p0(i64 8, ptr nonnull %6) #10
  call void @llvm.lifetime.end.p0(i64 8, ptr nonnull %5) #10
  call void @llvm.lifetime.end.p0(i64 160, ptr nonnull %4) #10
  ret i32 %.02336
}